target datalayout = "e-m:e-p270:32:32-p271:32:32-p272:64:64-i64:64-i128:128-f80:128-n8:16:32:64-S128"
target triple = "x86_64-pc-linux-gnu"

%struct.Vec_Ptr_t_ = type { i32, i32, ptr }

@.str.11 = private unnamed_addr constant [6 x i8] c" %s%s\00", align 1
@.str.12 = private unnamed_addr constant [2 x i8] c",\00", align 1
@.str.13 = private unnamed_addr constant [1 x i8] zeroinitializer, align 1

; Function Attrs: nounwind uwtable
define internal ptr @Vec_PtrEntry(ptr noundef %0, i32 noundef %1) #0 {
  %3 = alloca ptr, align 8
  %4 = alloca i32, align 4
  store ptr %0, ptr %3, align 8
  store i32 %1, ptr %4, align 4
  %5 = load ptr, ptr %3, align 8
  %6 = getelementptr inbounds %struct.Vec_Ptr_t_, ptr %5, i32 0, i32 2
  %7 = load ptr, ptr %6, align 8
  %8 = load i32, ptr %4, align 4
  %9 = sext i32 %8 to i64
  %10 = getelementptr inbounds ptr, ptr %7, i64 %9
  %11 = load ptr, ptr %10, align 8
  ret ptr %11
}

; Function Attrs: nounwind uwtable
define internal i32 @Vec_PtrSize(ptr noundef %0) #0 {
  %2 = alloca ptr, align 8
  store ptr %0, ptr %2, align 8
  %3 = load ptr, ptr %2, align 8
  %4 = getelementptr inbounds %struct.Vec_Ptr_t_, ptr %3, i32 0, i32 1
  %5 = load i32, ptr %4, align 4
  ret i32 %5
}

; Function Attrs: nounwind uwtable
define void @Bac_PtrDumpSignalsVerilog(ptr noundef %0, ptr noundef %1, i32 noundef %2) #0 {
  %4 = alloca ptr, align 8
  %5 = alloca ptr, align 8
  %6 = alloca i32, align 4
  %7 = alloca ptr, align 8
  %8 = alloca i32, align 4
  store ptr %0, ptr %4, align 8
  store ptr %1, ptr %5, align 8
  store i32 %2, ptr %6, align 4
  store i32 0, ptr %8, align 4
  br label %9

9:                                                ; preds = %35, %3
  %10 = load i32, ptr %8, align 4
  %11 = load ptr, ptr %5, align 8
  %12 = call i32 @Vec_PtrSize(ptr noundef %11)
  %13 = icmp slt i32 %10, %12
  br i1 %13, label %14, label %18

14:                                               ; preds = %9
  %15 = load ptr, ptr %5, align 8
  %16 = load i32, ptr %8, align 4
  %17 = call ptr @Vec_PtrEntry(ptr noundef %15, i32 noundef %16)
  store ptr %17, ptr %7, align 8
  br label %18

18:                                               ; preds = %14, %9
  %19 = phi i1 [ false, %9 ], [ true, %14 ]
  br i1 %19, label %20, label %38

20:                                               ; preds = %18
  %21 = load ptr, ptr %4, align 8
  %22 = load ptr, ptr %7, align 8
  %23 = load i32, ptr %6, align 4
  %24 = icmp ne i32 %23, 0
  br i1 %24, label %31, label %25

25:                                               ; preds = %20
  %26 = load i32, ptr %8, align 4
  %27 = load ptr, ptr %5, align 8
  %28 = call i32 @Vec_PtrSize(ptr noundef %27)
  %29 = sub nsw i32 %28, 1
  %30 = icmp slt i32 %26, %29
  br label %31

31:                                               ; preds = %25, %20
  %32 = phi i1 [ true, %20 ], [ %30, %25 ]
  %33 = select i1 %32, ptr @.str.12, ptr @.str.13
  %34 = call i32 (ptr, ptr, ...) @fprintf(ptr noundef %21, ptr noundef @.str.11, ptr noundef %22, ptr noundef %33) #9
  br label %35

35:                                               ; preds = %31
  %36 = load i32, ptr %8, align 4
  %37 = add nsw i32 %36, 1
  store i32 %37, ptr %8, align 4
  br label %9, !llvm.loop !13

38:                                               ; preds = %18
  ret void
}