; Function Attrs: nofree nounwind uwtable
define void @Bac_PtrDumpSignalsVerilog(ptr noundef captures(none) %0, ptr noundef readonly captures(none) %1, i32 noundef %2) local_unnamed_addr #3 {
  %4 = getelementptr i8, ptr %1, i64 4
  %.val1011 = load i32, ptr %4, align 4
  %5 = icmp sgt i32 %.val1011, 0
  br i1 %5, label %.lr.ph, label %.critedge

.lr.ph:                                           ; preds = %3
  %6 = getelementptr i8, ptr %1, i64 8
  %.not = icmp eq i32 %2, 0
  br i1 %.not, label %.lr.ph.split.us, label %.lr.ph.split

.lr.ph.split.us:                                  ; preds = %.lr.ph, %.lr.ph.split.us
  %indvars.iv16 = phi i64 [ %indvars.iv.next17, %.lr.ph.split.us ], [ 0, %.lr.ph ]
  %.val1013.us = phi i32 [ %.val10.us, %.lr.ph.split.us ], [ %.val1011, %.lr.ph ]
  %.val.us = load ptr, ptr %6, align 8
  %7 = getelementptr inbounds nuw ptr, ptr %.val.us, i64 %indvars.iv16
  %8 = load ptr, ptr %7, align 8
  %9 = add nsw i32 %.val1013.us, -1
  %10 = sext i32 %9 to i64
  %11 = icmp slt i64 %indvars.iv16, %10
  %12 = select i1 %11, ptr @.str.12, ptr @.str.13
  %13 = tail call i32 (ptr, ptr, ...) @fprintf(ptr noundef %0, ptr noundef nonnull @.str.11, ptr noundef %8, ptr noundef nonnull %12) #14
  %indvars.iv.next17 = add nuw nsw i64 %indvars.iv16, 1
  %.val10.us = load i32, ptr %4, align 4
  %14 = sext i32 %.val10.us to i64
  %15 = icmp slt i64 %indvars.iv.next17, %14
  br i1 %15, label %.lr.ph.split.us, label %.critedge, !llvm.loop !13

.lr.ph.split:                                     ; preds = %.lr.ph, %.lr.ph.split
  %indvars.iv = phi i64 [ %indvars.iv.next, %.lr.ph.split ], [ 0, %.lr.ph ]
  %.val = load ptr, ptr %6, align 8
  %16 = getelementptr inbounds nuw ptr, ptr %.val, i64 %indvars.iv
  %17 = load ptr, ptr %16, align 8
  %18 = tail call i32 (ptr, ptr, ...) @fprintf(ptr noundef %0, ptr noundef nonnull @.str.11, ptr noundef %17, ptr noundef nonnull @.str.12) #14
  %indvars.iv.next = add nuw nsw i64 %indvars.iv, 1
  %.val10 = load i32, ptr %4, align 4
  %19 = sext i32 %.val10 to i64
  %20 = icmp slt i64 %indvars.iv.next, %19
  br i1 %20, label %.lr.ph.split, label %.critedge, !llvm.loop !13

.critedge:                                        ; preds = %.lr.ph.split, %.lr.ph.split.us, %3
  ret void
}